target datalayout = "e-m:e-p270:32:32-p271:32:32-p272:64:64-i64:64-i128:128-f80:128-n8:16:32:64-S128"
target triple = "x86_64-pc-linux-gnu"

%struct.AVFilterContext = type { ptr, ptr, ptr, ptr, ptr, i32, ptr, ptr, i32, ptr, ptr, i32, i32, ptr, ptr, ptr, ptr, i32, ptr, i32, i32 }
%struct.AudioSDRContext = type { i32, i64, double, ptr, [2 x ptr], ptr }
%struct.ChanStats = type { double, double, double }
%struct.AVChannelLayout = type { i32, i32, %union.anon.1, ptr }
%union.anon.1 = type { i64 }
%struct.AVRational = type { i32, i32 }
%struct.AVFrame = type { [8 x ptr], [8 x i32], ptr, i32, i32, i32, i32, i32, %struct.AVRational, i64, i64, %struct.AVRational, i32, ptr, i32, i32, [8 x ptr], ptr, i32, ptr, i32, i32, i32, i32, i32, i32, i32, i64, ptr, i32, ptr, ptr, i64, i64, i64, i64, ptr, %struct.AVChannelLayout, i64 }

; Function Attrs: nounwind uwtable
define internal i32 @sdr_fltp(ptr noundef %0, ptr noundef %1, i32 noundef %2, i32 noundef %3) #1 {
  %5 = alloca ptr, align 8
  %6 = alloca ptr, align 8
  %7 = alloca i32, align 4
  %8 = alloca i32, align 4
  %9 = alloca ptr, align 8
  %10 = alloca ptr, align 8
  %11 = alloca ptr, align 8
  %12 = alloca i32, align 4
  %13 = alloca i32, align 4
  %14 = alloca i32, align 4
  %15 = alloca i32, align 4
  %16 = alloca i32, align 4
  %17 = alloca i32, align 4
  %18 = alloca ptr, align 8
  %19 = alloca ptr, align 8
  %20 = alloca ptr, align 8
  %21 = alloca double, align 8
  %22 = alloca double, align 8
  %23 = alloca i32, align 4
  store ptr %0, ptr %5, align 8, !tbaa !4
  store ptr %1, ptr %6, align 8, !tbaa !69
  store i32 %2, ptr %7, align 4, !tbaa !27
  store i32 %3, ptr %8, align 4, !tbaa !27
  call void @llvm.lifetime.start.p0(i64 8, ptr %9) #7
  %24 = load ptr, ptr %5, align 8, !tbaa !4
  %25 = getelementptr inbounds nuw %struct.AVFilterContext, ptr %24, i32 0, i32 9
  %26 = load ptr, ptr %25, align 8, !tbaa !9
  store ptr %26, ptr %9, align 8, !tbaa !22
  call void @llvm.lifetime.start.p0(i64 8, ptr %10) #7
  %27 = load ptr, ptr %9, align 8, !tbaa !22
  %28 = getelementptr inbounds nuw %struct.AudioSDRContext, ptr %27, i32 0, i32 4
  %29 = getelementptr inbounds [2 x ptr], ptr %28, i64 0, i64 0
  %30 = load ptr, ptr %29, align 8, !tbaa !62
  store ptr %30, ptr %10, align 8, !tbaa !62
  call void @llvm.lifetime.start.p0(i64 8, ptr %11) #7
  %31 = load ptr, ptr %9, align 8, !tbaa !22
  %32 = getelementptr inbounds nuw %struct.AudioSDRContext, ptr %31, i32 0, i32 4
  %33 = getelementptr inbounds [2 x ptr], ptr %32, i64 0, i64 1
  %34 = load ptr, ptr %33, align 8, !tbaa !62
  store ptr %34, ptr %11, align 8, !tbaa !62
  call void @llvm.lifetime.start.p0(i64 4, ptr %12) #7
  %35 = load ptr, ptr %10, align 8, !tbaa !62
  %36 = getelementptr inbounds nuw %struct.AVFrame, ptr %35, i32 0, i32 37
  %37 = getelementptr inbounds nuw %struct.AVChannelLayout, ptr %36, i32 0, i32 1
  %38 = load i32, ptr %37, align 4, !tbaa !70
  store i32 %38, ptr %12, align 4, !tbaa !27
  call void @llvm.lifetime.start.p0(i64 4, ptr %13) #7
  %39 = load i32, ptr %12, align 4, !tbaa !27
  %40 = load i32, ptr %7, align 4, !tbaa !27
  %41 = mul nsw i32 %39, %40
  %42 = load i32, ptr %8, align 4, !tbaa !27
  %43 = sdiv i32 %41, %42
  store i32 %43, ptr %13, align 4, !tbaa !27
  call void @llvm.lifetime.start.p0(i64 4, ptr %14) #7
  %44 = load i32, ptr %12, align 4, !tbaa !27
  %45 = load i32, ptr %7, align 4, !tbaa !27
  %46 = add nsw i32 %45, 1
  %47 = mul nsw i32 %44, %46
  %48 = load i32, ptr %8, align 4, !tbaa !27
  %49 = sdiv i32 %47, %48
  store i32 %49, ptr %14, align 4, !tbaa !27
  call void @llvm.lifetime.start.p0(i64 4, ptr %15) #7
  %50 = load ptr, ptr %10, align 8, !tbaa !62
  %51 = getelementptr inbounds nuw %struct.AVFrame, ptr %50, i32 0, i32 5
  %52 = load i32, ptr %51, align 8, !tbaa !75
  store i32 %52, ptr %15, align 4, !tbaa !27
  call void @llvm.lifetime.start.p0(i64 4, ptr %16) #7
  %53 = load i32, ptr %13, align 4, !tbaa !27
  store i32 %53, ptr %16, align 4, !tbaa !27
  br label %54

54:                                               ; preds = %140, %4
  %55 = load i32, ptr %16, align 4, !tbaa !27
  %56 = load i32, ptr %14, align 4, !tbaa !27
  %57 = icmp slt i32 %55, %56
  br i1 %57, label %59, label %58

58:                                               ; preds = %54
  store i32 2, ptr %17, align 4
  call void @llvm.lifetime.end.p0(i64 4, ptr %16) #7
  br label %143

59:                                               ; preds = %54
  call void @llvm.lifetime.start.p0(i64 8, ptr %18) #7
  %60 = load ptr, ptr %9, align 8, !tbaa !22
  %61 = getelementptr inbounds nuw %struct.AudioSDRContext, ptr %60, i32 0, i32 3
  %62 = load ptr, ptr %61, align 8, !tbaa !33
  %63 = load i32, ptr %16, align 4, !tbaa !27
  %64 = sext i32 %63 to i64
  %65 = getelementptr inbounds %struct.ChanStats, ptr %62, i64 %64
  store ptr %65, ptr %18, align 8, !tbaa !76
  call void @llvm.lifetime.start.p0(i64 8, ptr %19) #7
  %66 = load ptr, ptr %10, align 8, !tbaa !62
  %67 = getelementptr inbounds nuw %struct.AVFrame, ptr %66, i32 0, i32 2
  %68 = load ptr, ptr %67, align 8, !tbaa !77
  %69 = load i32, ptr %16, align 4, !tbaa !27
  %70 = sext i32 %69 to i64
  %71 = getelementptr inbounds ptr, ptr %68, i64 %70
  %72 = load ptr, ptr %71, align 8, !tbaa !78
  store ptr %72, ptr %19, align 8, !tbaa !79
  call void @llvm.lifetime.start.p0(i64 8, ptr %20) #7
  %73 = load ptr, ptr %11, align 8, !tbaa !62
  %74 = getelementptr inbounds nuw %struct.AVFrame, ptr %73, i32 0, i32 2
  %75 = load ptr, ptr %74, align 8, !tbaa !77
  %76 = load i32, ptr %16, align 4, !tbaa !27
  %77 = sext i32 %76 to i64
  %78 = getelementptr inbounds ptr, ptr %75, i64 %77
  %79 = load ptr, ptr %78, align 8, !tbaa !78
  store ptr %79, ptr %20, align 8, !tbaa !79
  call void @llvm.lifetime.start.p0(i64 8, ptr %21) #7
  store double 0.000000e+00, ptr %21, align 8, !tbaa !40
  call void @llvm.lifetime.start.p0(i64 8, ptr %22) #7
  store double 0.000000e+00, ptr %22, align 8, !tbaa !40
  call void @llvm.lifetime.start.p0(i64 4, ptr %23) #7
  store i32 0, ptr %23, align 4, !tbaa !27
  br label %80

80:                                               ; preds = %126, %59
  %81 = load i32, ptr %23, align 4, !tbaa !27
  %82 = load i32, ptr %15, align 4, !tbaa !27
  %83 = icmp slt i32 %81, %82
  br i1 %83, label %85, label %84

84:                                               ; preds = %80
  store i32 5, ptr %17, align 4
  call void @llvm.lifetime.end.p0(i64 4, ptr %23) #7
  br label %129

85:                                               ; preds = %80
  %86 = load ptr, ptr %19, align 8, !tbaa !79
  %87 = load i32, ptr %23, align 4, !tbaa !27
  %88 = sext i32 %87 to i64
  %89 = getelementptr inbounds float, ptr %86, i64 %88
  %90 = load float, ptr %89, align 4, !tbaa !81
  %91 = load ptr, ptr %19, align 8, !tbaa !79
  %92 = load i32, ptr %23, align 4, !tbaa !27
  %93 = sext i32 %92 to i64
  %94 = getelementptr inbounds float, ptr %91, i64 %93
  %95 = load float, ptr %94, align 4, !tbaa !81
  %96 = fmul nsz float %90, %95
  %97 = fpext nsz float %96 to double
  %98 = load double, ptr %22, align 8, !tbaa !40
  %99 = fadd nsz double %98, %97
  store double %99, ptr %22, align 8, !tbaa !40
  %100 = load ptr, ptr %19, align 8, !tbaa !79
  %101 = load i32, ptr %23, align 4, !tbaa !27
  %102 = sext i32 %101 to i64
  %103 = getelementptr inbounds float, ptr %100, i64 %102
  %104 = load float, ptr %103, align 4, !tbaa !81
  %105 = load ptr, ptr %20, align 8, !tbaa !79
  %106 = load i32, ptr %23, align 4, !tbaa !27
  %107 = sext i32 %106 to i64
  %108 = getelementptr inbounds float, ptr %105, i64 %107
  %109 = load float, ptr %108, align 4, !tbaa !81
  %110 = fsub nsz float %104, %109
  %111 = load ptr, ptr %19, align 8, !tbaa !79
  %112 = load i32, ptr %23, align 4, !tbaa !27
  %113 = sext i32 %112 to i64
  %114 = getelementptr inbounds float, ptr %111, i64 %113
  %115 = load float, ptr %114, align 4, !tbaa !81
  %116 = load ptr, ptr %20, align 8, !tbaa !79
  %117 = load i32, ptr %23, align 4, !tbaa !27
  %118 = sext i32 %117 to i64
  %119 = getelementptr inbounds float, ptr %116, i64 %118
  %120 = load float, ptr %119, align 4, !tbaa !81
  %121 = fsub nsz float %115, %120
  %122 = fmul nsz float %110, %121
  %123 = fpext nsz float %122 to double
  %124 = load double, ptr %21, align 8, !tbaa !40
  %125 = fadd nsz double %124, %123
  store double %125, ptr %21, align 8, !tbaa !40
  br label %126

126:                                              ; preds = %85
  %127 = load i32, ptr %23, align 4, !tbaa !27
  %128 = add nsw i32 %127, 1
  store i32 %128, ptr %23, align 4, !tbaa !27
  br label %80, !llvm.loop !83

129:                                              ; preds = %84
  %130 = load double, ptr %21, align 8, !tbaa !40
  %131 = load ptr, ptr %18, align 8, !tbaa !76
  %132 = getelementptr inbounds nuw %struct.ChanStats, ptr %131, i32 0, i32 2
  %133 = load double, ptr %132, align 8, !tbaa !36
  %134 = fadd nsz double %133, %130
  store double %134, ptr %132, align 8, !tbaa !36
  %135 = load double, ptr %22, align 8, !tbaa !40
  %136 = load ptr, ptr %18, align 8, !tbaa !76
  %137 = getelementptr inbounds nuw %struct.ChanStats, ptr %136, i32 0, i32 0
  %138 = load double, ptr %137, align 8, !tbaa !34
  %139 = fadd nsz double %138, %135
  store double %139, ptr %137, align 8, !tbaa !34
  call void @llvm.lifetime.end.p0(i64 8, ptr %22) #7
  call void @llvm.lifetime.end.p0(i64 8, ptr %21) #7
  call void @llvm.lifetime.end.p0(i64 8, ptr %20) #7
  call void @llvm.lifetime.end.p0(i64 8, ptr %19) #7
  call void @llvm.lifetime.end.p0(i64 8, ptr %18) #7
  br label %140

140:                                              ; preds = %129
  %141 = load i32, ptr %16, align 4, !tbaa !27
  %142 = add nsw i32 %141, 1
  store i32 %142, ptr %16, align 4, !tbaa !27
  br label %54, !llvm.loop !84

143:                                              ; preds = %58
  store i32 1, ptr %17, align 4
  call void @llvm.lifetime.end.p0(i64 4, ptr %15) #7
  call void @llvm.lifetime.end.p0(i64 4, ptr %14) #7
  call void @llvm.lifetime.end.p0(i64 4, ptr %13) #7
  call void @llvm.lifetime.end.p0(i64 4, ptr %12) #7
  call void @llvm.lifetime.end.p0(i64 8, ptr %11) #7
  call void @llvm.lifetime.end.p0(i64 8, ptr %10) #7
  call void @llvm.lifetime.end.p0(i64 8, ptr %9) #7
  ret i32 0
}